target datalayout = "e-m:e-p270:32:32-p271:32:32-p272:64:64-i64:64-i128:128-f80:128-n8:16:32:64-S128"
target triple = "x86_64-pc-linux-gnu"

%struct._object = type { %union.anon, ptr }
%union.anon = type { i64 }
%struct.anon = type { i32, i32 }
%struct.gaiterobject = type { %struct._object, ptr }
%struct.gaobject = type { %struct._object, ptr, ptr, ptr, ptr, i8, ptr }

@PyExc_StopIteration = external global ptr, align 8

; Function Attrs: alwaysinline nounwind uwtable
define internal i32 @_Py_IsImmortal(ptr noundef %0) #4 {
  %2 = alloca ptr, align 8
  store ptr %0, ptr %2, align 8, !tbaa !4
  %3 = load ptr, ptr %2, align 8, !tbaa !4
  %4 = getelementptr inbounds nuw %struct._object, ptr %3, i32 0, i32 0
  %5 = getelementptr inbounds nuw %struct.anon, ptr %4, i32 0, i32 0
  %6 = load i32, ptr %5, align 8, !tbaa !17
  %7 = icmp slt i32 %6, 0
  %8 = zext i1 %7 to i32
  ret i32 %8
}

; Function Attrs: alwaysinline nounwind uwtable
define internal void @Py_DECREF(ptr noundef %0) #4 {
  %2 = alloca ptr, align 8
  store ptr %0, ptr %2, align 8, !tbaa !4
  %3 = load ptr, ptr %2, align 8, !tbaa !4
  %4 = call i32 @_Py_IsImmortal(ptr noundef %3)
  %5 = icmp ne i32 %4, 0
  br i1 %5, label %6, label %7

6:                                                ; preds = %1
  br label %16

7:                                                ; preds = %1
  %8 = load ptr, ptr %2, align 8, !tbaa !4
  %9 = getelementptr inbounds nuw %struct._object, ptr %8, i32 0, i32 0
  %10 = getelementptr inbounds nuw %struct.anon, ptr %9, i32 0, i32 0
  %11 = load i32, ptr %10, align 8, !tbaa !17
  %12 = add i32 %11, -1
  store i32 %12, ptr %10, align 8, !tbaa !17
  %13 = icmp eq i32 %12, 0
  br i1 %13, label %14, label %16

14:                                               ; preds = %7
  %15 = load ptr, ptr %2, align 8, !tbaa !4
  call void @_Py_Dealloc(ptr noundef %15)
  br label %16

16:                                               ; preds = %6, %14, %7
  ret void
}

; Function Attrs: nounwind uwtable
define internal ptr @ga_iternext(ptr noundef %0) #0 {
  %2 = alloca ptr, align 8
  %3 = alloca ptr, align 8
  %4 = alloca ptr, align 8
  %5 = alloca ptr, align 8
  %6 = alloca i32, align 4
  %7 = alloca ptr, align 8
  %8 = alloca ptr, align 8
  store ptr %0, ptr %3, align 8, !tbaa !16
  %9 = load ptr, ptr %3, align 8, !tbaa !16
  %10 = getelementptr inbounds nuw %struct.gaiterobject, ptr %9, i32 0, i32 1
  %11 = load ptr, ptr %10, align 8, !tbaa !39
  %12 = icmp eq ptr %11, null
  br i1 %12, label %13, label %15

13:                                               ; preds = %1
  %14 = load ptr, ptr @PyExc_StopIteration, align 8, !tbaa !4
  call void @PyErr_SetNone(ptr noundef %14)
  store ptr null, ptr %2, align 8
  br label %43

15:                                               ; preds = %1
  call void @llvm.lifetime.start.p0(i64 8, ptr %4) #5
  %16 = load ptr, ptr %3, align 8, !tbaa !16
  %17 = getelementptr inbounds nuw %struct.gaiterobject, ptr %16, i32 0, i32 1
  %18 = load ptr, ptr %17, align 8, !tbaa !39
  store ptr %18, ptr %4, align 8, !tbaa !16
  call void @llvm.lifetime.start.p0(i64 8, ptr %5) #5
  %19 = load ptr, ptr %4, align 8, !tbaa !16
  %20 = getelementptr inbounds nuw %struct.gaobject, ptr %19, i32 0, i32 1
  %21 = load ptr, ptr %20, align 8, !tbaa !41
  %22 = load ptr, ptr %4, align 8, !tbaa !16
  %23 = getelementptr inbounds nuw %struct.gaobject, ptr %22, i32 0, i32 2
  %24 = load ptr, ptr %23, align 8, !tbaa !44
  %25 = call ptr @Py_GenericAlias(ptr noundef %21, ptr noundef %24)
  store ptr %25, ptr %5, align 8, !tbaa !4
  %26 = load ptr, ptr %5, align 8, !tbaa !4
  %27 = icmp eq ptr %26, null
  br i1 %27, label %28, label %29

28:                                               ; preds = %15
  store ptr null, ptr %2, align 8
  store i32 1, ptr %6, align 4
  br label %42

29:                                               ; preds = %15
  %30 = load ptr, ptr %5, align 8, !tbaa !4
  %31 = getelementptr inbounds nuw %struct.gaobject, ptr %30, i32 0, i32 5
  store i8 1, ptr %31, align 8, !tbaa !45
  br label %32

32:                                               ; preds = %29
  call void @llvm.lifetime.start.p0(i64 8, ptr %7) #5
  %33 = load ptr, ptr %3, align 8, !tbaa !16
  %34 = getelementptr inbounds nuw %struct.gaiterobject, ptr %33, i32 0, i32 1
  store ptr %34, ptr %7, align 8, !tbaa !30
  call void @llvm.lifetime.start.p0(i64 8, ptr %8) #5
  %35 = load ptr, ptr %7, align 8, !tbaa !30
  %36 = load ptr, ptr %35, align 8, !tbaa !4
  store ptr %36, ptr %8, align 8, !tbaa !4
  %37 = load ptr, ptr %7, align 8, !tbaa !30
  store ptr null, ptr %37, align 8, !tbaa !4
  %38 = load ptr, ptr %8, align 8, !tbaa !4
  call void @Py_DECREF(ptr noundef %38)
  call void @llvm.lifetime.end.p0(i64 8, ptr %8) #5
  call void @llvm.lifetime.end.p0(i64 8, ptr %7) #5
  br label %39

39:                                               ; preds = %32
  br label %40

40:                                               ; preds = %39
  %41 = load ptr, ptr %5, align 8, !tbaa !4
  store ptr %41, ptr %2, align 8
  store i32 1, ptr %6, align 4
  br label %42

42:                                               ; preds = %40, %28
  call void @llvm.lifetime.end.p0(i64 8, ptr %5) #5
  call void @llvm.lifetime.end.p0(i64 8, ptr %4) #5
  br label %43

43:                                               ; preds = %42, %13
  %44 = load ptr, ptr %2, align 8
  ret ptr %44
}