; Function Attrs: nounwind uwtable
define internal ptr @ga_iternext(ptr noundef captures(none) %0) #0 {
  %2 = getelementptr inbounds nuw i8, ptr %0, i64 16
  %3 = load ptr, ptr %2, align 8, !tbaa !41
  %4 = icmp eq ptr %3, null
  br i1 %4, label %5, label %7

5:                                                ; preds = %1
  %6 = load ptr, ptr @PyExc_StopIteration, align 8, !tbaa !12
  tail call void @PyErr_SetNone(ptr noundef %6) #5
  br label %Py_DECREF.exit

7:                                                ; preds = %1
  %8 = getelementptr inbounds nuw i8, ptr %3, i64 16
  %9 = load ptr, ptr %8, align 8, !tbaa !33
  %10 = getelementptr inbounds nuw i8, ptr %3, i64 24
  %11 = load ptr, ptr %10, align 8, !tbaa !34
  %12 = tail call ptr @Py_GenericAlias(ptr noundef %9, ptr noundef %11)
  %13 = icmp eq ptr %12, null
  br i1 %13, label %Py_DECREF.exit, label %14

14:                                               ; preds = %7
  %15 = getelementptr inbounds nuw i8, ptr %12, i64 48
  store i8 1, ptr %15, align 8, !tbaa !28
  %16 = load ptr, ptr %2, align 8, !tbaa !12
  store ptr null, ptr %2, align 8, !tbaa !12
  %17 = load i32, ptr %16, align 8, !tbaa !23
  %.not.i = icmp sgt i32 %17, -1
  br i1 %.not.i, label %18, label %Py_DECREF.exit

18:                                               ; preds = %14
  %19 = add nsw i32 %17, -1
  store i32 %19, ptr %16, align 8, !tbaa !23
  %20 = icmp eq i32 %19, 0
  br i1 %20, label %21, label %Py_DECREF.exit

21:                                               ; preds = %18
  tail call void @_Py_Dealloc(ptr noundef nonnull %16) #5
  br label %Py_DECREF.exit

Py_DECREF.exit:                                   ; preds = %21, %18, %14, %7, %5
  %.0 = phi ptr [ null, %5 ], [ null, %7 ], [ %12, %14 ], [ %12, %18 ], [ %12, %21 ]
  ret ptr %.0
}